target datalayout = "e-m:e-p270:32:32-p271:32:32-p272:64:64-i64:64-i128:128-f80:128-n8:16:32:64-S128"
target triple = "x86_64-pc-linux-gnu"

@.str = private unnamed_addr constant [41 x i8] c"../openssl/test/evp_pkey_provided_test.c\00", align 1
@.str.66 = private unnamed_addr constant [2 x i8] c"0\00", align 1
@.str.207 = private unnamed_addr constant [52 x i8] c"ctx = EVP_PKEY_CTX_new_from_name(NULL, \22DSA\22, NULL)\00", align 1
@.str.208 = private unnamed_addr constant [4 x i8] c"DSA\00", align 1
@.str.209 = private unnamed_addr constant [20 x i8] c"EVP_PKEY_check(ctx)\00", align 1
@.str.210 = private unnamed_addr constant [27 x i8] c"EVP_PKEY_public_check(ctx)\00", align 1
@.str.211 = private unnamed_addr constant [28 x i8] c"EVP_PKEY_private_check(ctx)\00", align 1
@.str.212 = private unnamed_addr constant [29 x i8] c"EVP_PKEY_pairwise_check(ctx)\00", align 1

; Function Attrs: nounwind uwtable
define internal i32 @test_check_dsa() #0 {
  %1 = alloca i32, align 4
  %2 = alloca ptr, align 8
  call void @llvm.lifetime.start.p0(i64 4, ptr %1) #6
  store i32 0, ptr %1, align 4, !tbaa !9
  call void @llvm.lifetime.start.p0(i64 8, ptr %2) #6
  store ptr null, ptr %2, align 8, !tbaa !13
  %3 = call ptr @EVP_PKEY_CTX_new_from_name(ptr noundef null, ptr noundef @.str.208, ptr noundef null)
  store ptr %3, ptr %2, align 8, !tbaa !13
  %4 = call i32 @test_ptr(ptr noundef @.str, i32 noundef 2120, ptr noundef @.str.207, ptr noundef %3)
  %5 = icmp ne i32 %4, 0
  br i1 %5, label %6, label %26

6:                                                ; preds = %0
  %7 = load ptr, ptr %2, align 8, !tbaa !13
  %8 = call i32 @EVP_PKEY_check(ptr noundef %7)
  %9 = call i32 @test_int_le(ptr noundef @.str, i32 noundef 2121, ptr noundef @.str.209, ptr noundef @.str.66, i32 noundef %8, i32 noundef 0)
  %10 = icmp ne i32 %9, 0
  br i1 %10, label %11, label %26

11:                                               ; preds = %6
  %12 = load ptr, ptr %2, align 8, !tbaa !13
  %13 = call i32 @EVP_PKEY_public_check(ptr noundef %12)
  %14 = call i32 @test_int_le(ptr noundef @.str, i32 noundef 2122, ptr noundef @.str.210, ptr noundef @.str.66, i32 noundef %13, i32 noundef 0)
  %15 = icmp ne i32 %14, 0
  br i1 %15, label %16, label %26

16:                                               ; preds = %11
  %17 = load ptr, ptr %2, align 8, !tbaa !13
  %18 = call i32 @EVP_PKEY_private_check(ptr noundef %17)
  %19 = call i32 @test_int_le(ptr noundef @.str, i32 noundef 2123, ptr noundef @.str.211, ptr noundef @.str.66, i32 noundef %18, i32 noundef 0)
  %20 = icmp ne i32 %19, 0
  br i1 %20, label %21, label %26

21:                                               ; preds = %16
  %22 = load ptr, ptr %2, align 8, !tbaa !13
  %23 = call i32 @EVP_PKEY_pairwise_check(ptr noundef %22)
  %24 = call i32 @test_int_le(ptr noundef @.str, i32 noundef 2124, ptr noundef @.str.212, ptr noundef @.str.66, i32 noundef %23, i32 noundef 0)
  %25 = icmp ne i32 %24, 0
  br i1 %25, label %27, label %26

26:                                               ; preds = %21, %16, %11, %6, %0
  br label %28

27:                                               ; preds = %21
  store i32 1, ptr %1, align 4, !tbaa !9
  br label %28

28:                                               ; preds = %27, %26
  %29 = load ptr, ptr %2, align 8, !tbaa !13
  call void @EVP_PKEY_CTX_free(ptr noundef %29)
  %30 = load i32, ptr %1, align 4, !tbaa !9
  call void @llvm.lifetime.end.p0(i64 8, ptr %2) #6
  call void @llvm.lifetime.end.p0(i64 4, ptr %1) #6
  ret i32 %30
}