; Function Attrs: nounwind uwtable
define internal range(i32 0, 2) i32 @test_check_dsa() #0 {
  %1 = tail call ptr @EVP_PKEY_CTX_new_from_name(ptr noundef null, ptr noundef nonnull @.str.208, ptr noundef null) #6
  %2 = tail call i32 @test_ptr(ptr noundef nonnull @.str, i32 noundef 2120, ptr noundef nonnull @.str.207, ptr noundef %1) #6
  %.not = icmp eq i32 %2, 0
  br i1 %.not, label %15, label %3

3:                                                ; preds = %0
  %4 = tail call i32 @EVP_PKEY_check(ptr noundef %1) #6
  %5 = tail call i32 @test_int_le(ptr noundef nonnull @.str, i32 noundef 2121, ptr noundef nonnull @.str.209, ptr noundef nonnull @.str.66, i32 noundef %4, i32 noundef 0) #6
  %.not5 = icmp eq i32 %5, 0
  br i1 %.not5, label %15, label %6

6:                                                ; preds = %3
  %7 = tail call i32 @EVP_PKEY_public_check(ptr noundef %1) #6
  %8 = tail call i32 @test_int_le(ptr noundef nonnull @.str, i32 noundef 2122, ptr noundef nonnull @.str.210, ptr noundef nonnull @.str.66, i32 noundef %7, i32 noundef 0) #6
  %.not6 = icmp eq i32 %8, 0
  br i1 %.not6, label %15, label %9

9:                                                ; preds = %6
  %10 = tail call i32 @EVP_PKEY_private_check(ptr noundef %1) #6
  %11 = tail call i32 @test_int_le(ptr noundef nonnull @.str, i32 noundef 2123, ptr noundef nonnull @.str.211, ptr noundef nonnull @.str.66, i32 noundef %10, i32 noundef 0) #6
  %.not7 = icmp eq i32 %11, 0
  br i1 %.not7, label %15, label %12

12:                                               ; preds = %9
  %13 = tail call i32 @EVP_PKEY_pairwise_check(ptr noundef %1) #6
  %14 = tail call i32 @test_int_le(ptr noundef nonnull @.str, i32 noundef 2124, ptr noundef nonnull @.str.212, ptr noundef nonnull @.str.66, i32 noundef %13, i32 noundef 0) #6
  %.not8 = icmp ne i32 %14, 0
  %spec.select = zext i1 %.not8 to i32
  br label %15

15:                                               ; preds = %12, %0, %3, %6, %9
  %.0 = phi i32 [ 0, %9 ], [ 0, %6 ], [ 0, %3 ], [ 0, %0 ], [ %spec.select, %12 ]
  tail call void @EVP_PKEY_CTX_free(ptr noundef %1) #6
  ret i32 %.0
}